target datalayout = "e-m:e-p270:32:32-p271:32:32-p272:64:64-i64:64-i128:128-f80:128-n8:16:32:64-S128"
target triple = "x86_64-pc-linux-gnu"

%struct.Abc_Ntk_t_ = type { i32, i32, ptr, ptr, ptr, ptr, ptr, ptr, ptr, ptr, ptr, ptr, ptr, [11 x i32], i32, i32, i32, i32, ptr, i32, ptr, ptr, i32, i32, i32, double, i32, %struct.Vec_Int_t_, ptr, ptr, ptr, ptr, ptr, float, i32, ptr, ptr, ptr, ptr, ptr, ptr, ptr, ptr, ptr, ptr, ptr, ptr, ptr, ptr, ptr, ptr, ptr, ptr, ptr, ptr, ptr, ptr }
%struct.Vec_Int_t_ = type { i32, i32, ptr }
%struct.Vec_Ptr_t_ = type { i32, i32, ptr }
%struct.Abc_Obj_t_ = type { ptr, ptr, i32, i32, %struct.Vec_Int_t_, %struct.Vec_Int_t_, %union.anon, %union.anon.0 }
%union.anon = type { ptr }
%union.anon.0 = type { ptr }

@stdout = external global ptr, align 8
@.str.21 = private unnamed_addr constant [52 x i8] c"Abc_NtkCreateFromNode(): Network check has failed.\0A\00", align 1

; Function Attrs: inlinehint nounwind uwtable
define internal ptr @Abc_NtkCreatePo(ptr noundef %0) #4 {
  %2 = alloca ptr, align 8
  store ptr %0, ptr %2, align 8, !tbaa !7
  %3 = load ptr, ptr %2, align 8, !tbaa !7
  %4 = call ptr @Abc_NtkCreateObj(ptr noundef %3, i32 noundef 3)
  ret ptr %4
}

; Function Attrs: inlinehint nounwind uwtable
define internal ptr @Abc_NtkCreatePi(ptr noundef %0) #4 {
  %2 = alloca ptr, align 8
  store ptr %0, ptr %2, align 8, !tbaa !7
  %3 = load ptr, ptr %2, align 8, !tbaa !7
  %4 = call ptr @Abc_NtkCreateObj(ptr noundef %3, i32 noundef 2)
  ret ptr %4
}

; Function Attrs: inlinehint nounwind uwtable
define internal ptr @Abc_ObjFanin(ptr noundef %0, i32 noundef %1) #4 {
  %3 = alloca ptr, align 8
  %4 = alloca i32, align 4
  store ptr %0, ptr %3, align 8, !tbaa !53
  store i32 %1, ptr %4, align 4, !tbaa !3
  %5 = load ptr, ptr %3, align 8, !tbaa !53
  %6 = getelementptr inbounds nuw %struct.Abc_Obj_t_, ptr %5, i32 0, i32 0
  %7 = load ptr, ptr %6, align 8, !tbaa !83
  %8 = getelementptr inbounds nuw %struct.Abc_Ntk_t_, ptr %7, i32 0, i32 5
  %9 = load ptr, ptr %8, align 8, !tbaa !27
  %10 = getelementptr inbounds nuw %struct.Vec_Ptr_t_, ptr %9, i32 0, i32 2
  %11 = load ptr, ptr %10, align 8, !tbaa !46
  %12 = load ptr, ptr %3, align 8, !tbaa !53
  %13 = getelementptr inbounds nuw %struct.Abc_Obj_t_, ptr %12, i32 0, i32 4
  %14 = getelementptr inbounds nuw %struct.Vec_Int_t_, ptr %13, i32 0, i32 2
  %15 = load ptr, ptr %14, align 8, !tbaa !85
  %16 = load i32, ptr %4, align 4, !tbaa !3
  %17 = sext i32 %16 to i64
  %18 = getelementptr inbounds i32, ptr %15, i64 %17
  %19 = load i32, ptr %18, align 4, !tbaa !3
  %20 = sext i32 %19 to i64
  %21 = getelementptr inbounds ptr, ptr %11, i64 %20
  %22 = load ptr, ptr %21, align 8, !tbaa !47
  ret ptr %22
}

; Function Attrs: inlinehint nounwind uwtable
define internal i32 @Abc_ObjFaninNum(ptr noundef %0) #4 {
  %2 = alloca ptr, align 8
  store ptr %0, ptr %2, align 8, !tbaa !53
  %3 = load ptr, ptr %2, align 8, !tbaa !53
  %4 = getelementptr inbounds nuw %struct.Abc_Obj_t_, ptr %3, i32 0, i32 4
  %5 = getelementptr inbounds nuw %struct.Vec_Int_t_, ptr %4, i32 0, i32 1
  %6 = load i32, ptr %5, align 4, !tbaa !91
  ret i32 %6
}

; Function Attrs: nounwind uwtable
define ptr @Abc_NtkCreateFromNode(ptr noundef %0, ptr noundef %1) #0 {
  %3 = alloca ptr, align 8
  %4 = alloca ptr, align 8
  %5 = alloca ptr, align 8
  %6 = alloca ptr, align 8
  %7 = alloca ptr, align 8
  %8 = alloca i32, align 4
  store ptr %0, ptr %3, align 8, !tbaa !7
  store ptr %1, ptr %4, align 8, !tbaa !53
  call void @llvm.lifetime.start.p0(i64 8, ptr %5) #11
  call void @llvm.lifetime.start.p0(i64 8, ptr %6) #11
  call void @llvm.lifetime.start.p0(i64 8, ptr %7) #11
  call void @llvm.lifetime.start.p0(i64 4, ptr %8) #11
  %9 = load ptr, ptr %3, align 8, !tbaa !7
  %10 = getelementptr inbounds nuw %struct.Abc_Ntk_t_, ptr %9, i32 0, i32 0
  %11 = load i32, ptr %10, align 8, !tbaa !10
  %12 = load ptr, ptr %3, align 8, !tbaa !7
  %13 = getelementptr inbounds nuw %struct.Abc_Ntk_t_, ptr %12, i32 0, i32 1
  %14 = load i32, ptr %13, align 4, !tbaa !26
  %15 = call ptr @Abc_NtkAlloc(i32 noundef %11, i32 noundef %14, i32 noundef 1)
  store ptr %15, ptr %5, align 8, !tbaa !7
  %16 = load ptr, ptr %4, align 8, !tbaa !53
  %17 = call ptr @Abc_ObjName(ptr noundef %16)
  %18 = call ptr @Extra_UtilStrsav(ptr noundef %17)
  %19 = load ptr, ptr %5, align 8, !tbaa !7
  %20 = getelementptr inbounds nuw %struct.Abc_Ntk_t_, ptr %19, i32 0, i32 2
  store ptr %18, ptr %20, align 8, !tbaa !50
  store i32 0, ptr %8, align 4, !tbaa !3
  br label %21

21:                                               ; preds = %43, %2
  %22 = load i32, ptr %8, align 4, !tbaa !3
  %23 = load ptr, ptr %4, align 8, !tbaa !53
  %24 = call i32 @Abc_ObjFaninNum(ptr noundef %23)
  %25 = icmp slt i32 %22, %24
  br i1 %25, label %26, label %30

26:                                               ; preds = %21
  %27 = load ptr, ptr %4, align 8, !tbaa !53
  %28 = load i32, ptr %8, align 4, !tbaa !3
  %29 = call ptr @Abc_ObjFanin(ptr noundef %27, i32 noundef %28)
  store ptr %29, ptr %6, align 8, !tbaa !53
  br label %30

30:                                               ; preds = %26, %21
  %31 = phi i1 [ false, %21 ], [ true, %26 ]
  br i1 %31, label %32, label %46

32:                                               ; preds = %30
  %33 = load ptr, ptr %5, align 8, !tbaa !7
  %34 = call ptr @Abc_NtkCreatePi(ptr noundef %33)
  %35 = load ptr, ptr %6, align 8, !tbaa !53
  %36 = getelementptr inbounds nuw %struct.Abc_Obj_t_, ptr %35, i32 0, i32 7
  store ptr %34, ptr %36, align 8, !tbaa !52
  %37 = load ptr, ptr %6, align 8, !tbaa !53
  %38 = getelementptr inbounds nuw %struct.Abc_Obj_t_, ptr %37, i32 0, i32 7
  %39 = load ptr, ptr %38, align 8, !tbaa !52
  %40 = load ptr, ptr %6, align 8, !tbaa !53
  %41 = call ptr @Abc_ObjName(ptr noundef %40)
  %42 = call ptr @Abc_ObjAssignName(ptr noundef %39, ptr noundef %41, ptr noundef null)
  br label %43

43:                                               ; preds = %32
  %44 = load i32, ptr %8, align 4, !tbaa !3
  %45 = add nsw i32 %44, 1
  store i32 %45, ptr %8, align 4, !tbaa !3
  br label %21, !llvm.loop !173

46:                                               ; preds = %30
  %47 = load ptr, ptr %5, align 8, !tbaa !7
  %48 = load ptr, ptr %4, align 8, !tbaa !53
  %49 = call ptr @Abc_NtkDupObj(ptr noundef %47, ptr noundef %48, i32 noundef 0)
  %50 = load ptr, ptr %4, align 8, !tbaa !53
  %51 = getelementptr inbounds nuw %struct.Abc_Obj_t_, ptr %50, i32 0, i32 7
  store ptr %49, ptr %51, align 8, !tbaa !52
  store i32 0, ptr %8, align 4, !tbaa !3
  br label %52

52:                                               ; preds = %70, %46
  %53 = load i32, ptr %8, align 4, !tbaa !3
  %54 = load ptr, ptr %4, align 8, !tbaa !53
  %55 = call i32 @Abc_ObjFaninNum(ptr noundef %54)
  %56 = icmp slt i32 %53, %55
  br i1 %56, label %57, label %61

57:                                               ; preds = %52
  %58 = load ptr, ptr %4, align 8, !tbaa !53
  %59 = load i32, ptr %8, align 4, !tbaa !3
  %60 = call ptr @Abc_ObjFanin(ptr noundef %58, i32 noundef %59)
  store ptr %60, ptr %6, align 8, !tbaa !53
  br label %61

61:                                               ; preds = %57, %52
  %62 = phi i1 [ false, %52 ], [ true, %57 ]
  br i1 %62, label %63, label %73

63:                                               ; preds = %61
  %64 = load ptr, ptr %4, align 8, !tbaa !53
  %65 = getelementptr inbounds nuw %struct.Abc_Obj_t_, ptr %64, i32 0, i32 7
  %66 = load ptr, ptr %65, align 8, !tbaa !52
  %67 = load ptr, ptr %6, align 8, !tbaa !53
  %68 = getelementptr inbounds nuw %struct.Abc_Obj_t_, ptr %67, i32 0, i32 7
  %69 = load ptr, ptr %68, align 8, !tbaa !52
  call void @Abc_ObjAddFanin(ptr noundef %66, ptr noundef %69)
  br label %70

70:                                               ; preds = %63
  %71 = load i32, ptr %8, align 4, !tbaa !3
  %72 = add nsw i32 %71, 1
  store i32 %72, ptr %8, align 4, !tbaa !3
  br label %52, !llvm.loop !174

73:                                               ; preds = %61
  %74 = load ptr, ptr %5, align 8, !tbaa !7
  %75 = call ptr @Abc_NtkCreatePo(ptr noundef %74)
  store ptr %75, ptr %7, align 8, !tbaa !53
  %76 = load ptr, ptr %7, align 8, !tbaa !53
  %77 = load ptr, ptr %4, align 8, !tbaa !53
  %78 = getelementptr inbounds nuw %struct.Abc_Obj_t_, ptr %77, i32 0, i32 7
  %79 = load ptr, ptr %78, align 8, !tbaa !52
  call void @Abc_ObjAddFanin(ptr noundef %76, ptr noundef %79)
  %80 = load ptr, ptr %7, align 8, !tbaa !53
  %81 = load ptr, ptr %4, align 8, !tbaa !53
  %82 = call ptr @Abc_ObjName(ptr noundef %81)
  %83 = call ptr @Abc_ObjAssignName(ptr noundef %80, ptr noundef %82, ptr noundef null)
  %84 = load ptr, ptr %5, align 8, !tbaa !7
  %85 = call i32 @Abc_NtkCheck(ptr noundef %84)
  %86 = icmp ne i32 %85, 0
  br i1 %86, label %90, label %87

87:                                               ; preds = %73
  %88 = load ptr, ptr @stdout, align 8, !tbaa !105
  %89 = call i32 (ptr, ptr, ...) @fprintf(ptr noundef %88, ptr noundef @.str.21) #11
  br label %90

90:                                               ; preds = %87, %73
  %91 = load ptr, ptr %5, align 8, !tbaa !7
  call void @llvm.lifetime.end.p0(i64 4, ptr %8) #11
  call void @llvm.lifetime.end.p0(i64 8, ptr %7) #11
  call void @llvm.lifetime.end.p0(i64 8, ptr %6) #11
  call void @llvm.lifetime.end.p0(i64 8, ptr %5) #11
  ret ptr %91
}