; Function Attrs: nounwind uwtable
define noundef ptr @Abc_NtkCreateFromNode(ptr noundef readonly captures(none) %0, ptr noundef %1) local_unnamed_addr #0 {
  %3 = load i32, ptr %0, align 8, !tbaa !3
  %4 = getelementptr inbounds nuw i8, ptr %0, i64 4
  %5 = load i32, ptr %4, align 4, !tbaa !24
  %6 = tail call ptr @Abc_NtkAlloc(i32 noundef %3, i32 noundef %5, i32 noundef 1)
  %7 = tail call ptr @Abc_ObjName(ptr noundef %1) #20
  %8 = tail call ptr @Extra_UtilStrsav(ptr noundef %7) #20
  %9 = getelementptr inbounds nuw i8, ptr %6, i64 8
  store ptr %8, ptr %9, align 8, !tbaa !47
  %10 = getelementptr i8, ptr %1, i64 28
  %.val3136 = load i32, ptr %10, align 4, !tbaa !86
  %11 = icmp sgt i32 %.val3136, 0
  br i1 %11, label %.lr.ph, label %.critedge

.lr.ph:                                           ; preds = %2
  %12 = getelementptr i8, ptr %1, i64 32
  br label %13

13:                                               ; preds = %.lr.ph, %13
  %indvars.iv = phi i64 [ 0, %.lr.ph ], [ %indvars.iv.next, %13 ]
  %.val34 = load ptr, ptr %1, align 8, !tbaa !75
  %.val35 = load ptr, ptr %12, align 8, !tbaa !78
  %14 = getelementptr i8, ptr %.val34, i64 32
  %.val34.val = load ptr, ptr %14, align 8, !tbaa !29
  %15 = getelementptr i8, ptr %.val34.val, i64 8
  %.val34.val.val = load ptr, ptr %15, align 8, !tbaa !28
  %16 = getelementptr inbounds nuw i32, ptr %.val35, i64 %indvars.iv
  %17 = load i32, ptr %16, align 4, !tbaa !57
  %18 = sext i32 %17 to i64
  %19 = getelementptr inbounds ptr, ptr %.val34.val.val, i64 %18
  %20 = load ptr, ptr %19, align 8, !tbaa !40
  %21 = tail call ptr @Abc_NtkCreateObj(ptr noundef %6, i32 noundef 2) #20
  %22 = getelementptr inbounds nuw i8, ptr %20, i64 64
  store ptr %21, ptr %22, align 8, !tbaa !49
  %23 = tail call ptr @Abc_ObjName(ptr noundef %20) #20
  %24 = tail call ptr @Abc_ObjAssignName(ptr noundef %21, ptr noundef %23, ptr noundef null) #20
  %indvars.iv.next = add nuw nsw i64 %indvars.iv, 1
  %.val31 = load i32, ptr %10, align 4, !tbaa !86
  %25 = sext i32 %.val31 to i64
  %26 = icmp slt i64 %indvars.iv.next, %25
  br i1 %26, label %13, label %.critedge, !llvm.loop !181

.critedge:                                        ; preds = %13, %2
  %27 = tail call ptr @Abc_NtkDupObj(ptr noundef %6, ptr noundef nonnull %1, i32 noundef 0) #20
  %28 = getelementptr inbounds nuw i8, ptr %1, i64 64
  store ptr %27, ptr %28, align 8, !tbaa !49
  %.val38 = load i32, ptr %10, align 4, !tbaa !86
  %29 = icmp sgt i32 %.val38, 0
  br i1 %29, label %.lr.ph40, label %.critedge2

.lr.ph40:                                         ; preds = %.critedge
  %30 = getelementptr i8, ptr %1, i64 32
  br label %31

31:                                               ; preds = %.lr.ph40, %31
  %indvars.iv42 = phi i64 [ 0, %.lr.ph40 ], [ %indvars.iv.next43, %31 ]
  %.val32 = load ptr, ptr %1, align 8, !tbaa !75
  %.val33 = load ptr, ptr %30, align 8, !tbaa !78
  %32 = getelementptr i8, ptr %.val32, i64 32
  %.val32.val = load ptr, ptr %32, align 8, !tbaa !29
  %33 = getelementptr i8, ptr %.val32.val, i64 8
  %.val32.val.val = load ptr, ptr %33, align 8, !tbaa !28
  %34 = getelementptr inbounds nuw i32, ptr %.val33, i64 %indvars.iv42
  %35 = load i32, ptr %34, align 4, !tbaa !57
  %36 = sext i32 %35 to i64
  %37 = getelementptr inbounds ptr, ptr %.val32.val.val, i64 %36
  %38 = load ptr, ptr %37, align 8, !tbaa !40
  %39 = load ptr, ptr %28, align 8, !tbaa !49
  %40 = getelementptr inbounds nuw i8, ptr %38, i64 64
  %41 = load ptr, ptr %40, align 8, !tbaa !49
  tail call void @Abc_ObjAddFanin(ptr noundef %39, ptr noundef %41) #20
  %indvars.iv.next43 = add nuw nsw i64 %indvars.iv42, 1
  %.val = load i32, ptr %10, align 4, !tbaa !86
  %42 = sext i32 %.val to i64
  %43 = icmp slt i64 %indvars.iv.next43, %42
  br i1 %43, label %31, label %.critedge2, !llvm.loop !182

.critedge2:                                       ; preds = %31, %.critedge
  %44 = tail call ptr @Abc_NtkCreateObj(ptr noundef %6, i32 noundef 3) #20
  %45 = load ptr, ptr %28, align 8, !tbaa !49
  tail call void @Abc_ObjAddFanin(ptr noundef %44, ptr noundef %45) #20
  %46 = tail call ptr @Abc_ObjName(ptr noundef nonnull %1) #20
  %47 = tail call ptr @Abc_ObjAssignName(ptr noundef %44, ptr noundef %46, ptr noundef null) #20
  %48 = tail call i32 @Abc_NtkCheck(ptr noundef %6) #20
  %.not = icmp eq i32 %48, 0
  br i1 %.not, label %49, label %52

49:                                               ; preds = %.critedge2
  %50 = load ptr, ptr @stdout, align 8, !tbaa !100
  %51 = tail call i64 @fwrite(ptr nonnull @.str.21, i64 51, i64 1, ptr %50)
  br label %52

52:                                               ; preds = %49, %.critedge2
  ret ptr %6
}